target datalayout = "e-m:e-p270:32:32-p271:32:32-p272:64:64-i64:64-i128:128-f80:128-n8:16:32:64-S128"
target triple = "x86_64-pc-linux-gnu"

%"class.std::__cxx11::basic_string" = type { %"struct.std::__cxx11::basic_string<char>::_Alloc_hider", i64, %union.anon }
%"struct.std::__cxx11::basic_string<char>::_Alloc_hider" = type { ptr }
%union.anon = type { i64, [8 x i8] }
%class.cmCTestResourceGroupsLexerHelper = type { ptr, i32, %"class.std::__cxx11::basic_string", i32, %"class.std::vector.376" }
%"class.std::vector.376" = type { %"struct.std::_Vector_base.377" }
%"struct.std::_Vector_base.377" = type { %"struct.std::_Vector_base<cmCTestTestHandler::cmCTestTestResourceRequirement, std::allocator<cmCTestTestHandler::cmCTestTestResourceRequirement>>::_Vector_impl" }
%"struct.std::_Vector_base<cmCTestTestHandler::cmCTestTestResourceRequirement, std::allocator<cmCTestTestHandler::cmCTestTestResourceRequirement>>::_Vector_impl" = type { %"struct.std::_Vector_base<cmCTestTestHandler::cmCTestTestResourceRequirement, std::allocator<cmCTestTestHandler::cmCTestTestResourceRequirement>>::_Vector_impl_data" }
%"struct.std::_Vector_base<cmCTestTestHandler::cmCTestTestResourceRequirement, std::allocator<cmCTestTestHandler::cmCTestTestResourceRequirement>>::_Vector_impl_data" = type { ptr, ptr, ptr }

; Function Attrs: mustprogress uwtable
define dso_local noundef zeroext i1 @_ZN18cmCTestTestHandler27ParseResourceGroupsPropertyERKNSt7__cxx1112basic_stringIcSt11char_traitsIcESaIcEEERSt6vectorIS8_INS_30cmCTestTestResourceRequirementESaIS9_EESaISB_EE(ptr noundef nonnull align 8 dereferenceable(32) %0, ptr noundef nonnull align 8 dereferenceable(24) %1) #4 align 2 personality ptr @__gxx_personality_v0 {
  %3 = alloca ptr, align 8
  %4 = alloca ptr, align 8
  %5 = alloca %class.cmCTestResourceGroupsLexerHelper, align 8
  %6 = alloca ptr, align 8
  %7 = alloca i32, align 4
  store ptr %0, ptr %3, align 8
  store ptr %1, ptr %4, align 8
  %8 = load ptr, ptr %4, align 8
  call void @_ZN32cmCTestResourceGroupsLexerHelperC1ERSt6vectorIS0_IN18cmCTestTestHandler30cmCTestTestResourceRequirementESaIS2_EESaIS4_EE(ptr noundef nonnull align 8 dereferenceable(80) %5, ptr noundef nonnull align 8 dereferenceable(24) %8)
  %9 = load ptr, ptr %3, align 8
  %10 = invoke noundef zeroext i1 @_ZN32cmCTestResourceGroupsLexerHelper11ParseStringERKNSt7__cxx1112basic_stringIcSt11char_traitsIcESaIcEEE(ptr noundef nonnull align 8 dereferenceable(80) %5, ptr noundef nonnull align 8 dereferenceable(32) %9)
          to label %11 unwind label %12

11:                                               ; preds = %2
  call void @_ZN32cmCTestResourceGroupsLexerHelperD2Ev(ptr noundef nonnull align 8 dereferenceable(80) %5) #3
  ret i1 %10

12:                                               ; preds = %2
  %13 = landingpad { ptr, i32 }
          cleanup
  %14 = extractvalue { ptr, i32 } %13, 0
  store ptr %14, ptr %6, align 8
  %15 = extractvalue { ptr, i32 } %13, 1
  store i32 %15, ptr %7, align 4
  call void @_ZN32cmCTestResourceGroupsLexerHelperD2Ev(ptr noundef nonnull align 8 dereferenceable(80) %5) #3
  br label %16

16:                                               ; preds = %12
  %17 = load ptr, ptr %6, align 8
  %18 = load i32, ptr %7, align 4
  %19 = insertvalue { ptr, i32 } poison, ptr %17, 0
  %20 = insertvalue { ptr, i32 } %19, i32 %18, 1
  resume { ptr, i32 } %20
}