; Function Attrs: mustprogress uwtable
define dso_local noundef zeroext i1 @_ZN18cmCTestTestHandler27ParseResourceGroupsPropertyERKNSt7__cxx1112basic_stringIcSt11char_traitsIcESaIcEEERSt6vectorIS8_INS_30cmCTestTestResourceRequirementESaIS9_EESaISB_EE(ptr noundef nonnull align 8 dereferenceable(32) %0, ptr noundef nonnull align 8 dereferenceable(24) %1) local_unnamed_addr #3 align 2 personality ptr @__gxx_personality_v0 {
  %3 = alloca %class.cmCTestResourceGroupsLexerHelper, align 8
  call void @_ZN32cmCTestResourceGroupsLexerHelperC1ERSt6vectorIS0_IN18cmCTestTestHandler30cmCTestTestResourceRequirementESaIS2_EESaIS4_EE(ptr noundef nonnull align 8 dereferenceable(80) %3, ptr noundef nonnull align 8 dereferenceable(24) %1)
  %4 = invoke noundef zeroext i1 @_ZN32cmCTestResourceGroupsLexerHelper11ParseStringERKNSt7__cxx1112basic_stringIcSt11char_traitsIcESaIcEEE(ptr noundef nonnull align 8 dereferenceable(80) %3, ptr noundef nonnull align 8 dereferenceable(32) %0)
          to label %5 unwind label %14

5:                                                ; preds = %2
  %6 = getelementptr inbounds i8, ptr %3, i64 56
  %7 = load ptr, ptr %6, align 8
  %8 = getelementptr inbounds i8, ptr %3, i64 64
  %9 = load ptr, ptr %8, align 8
  %.not4.i.i.i.i.i = icmp eq ptr %7, %9
  br i1 %.not4.i.i.i.i.i, label %_ZSt8_DestroyIPN18cmCTestTestHandler30cmCTestTestResourceRequirementES1_EvT_S3_RSaIT0_E.exit.i.i, label %.lr.ph.i.i.i.i.i

.lr.ph.i.i.i.i.i:                                 ; preds = %5, %.lr.ph.i.i.i.i.i
  %.05.i.i.i.i.i = phi ptr [ %10, %.lr.ph.i.i.i.i.i ], [ %7, %5 ]
  call void @_ZNSt7__cxx1112basic_stringIcSt11char_traitsIcESaIcEED1Ev(ptr noundef nonnull align 8 dereferenceable(32) %.05.i.i.i.i.i) #25
  %10 = getelementptr inbounds i8, ptr %.05.i.i.i.i.i, i64 40
  %.not.i.i.i.i.i = icmp eq ptr %10, %9
  br i1 %.not.i.i.i.i.i, label %_ZSt8_DestroyIPN18cmCTestTestHandler30cmCTestTestResourceRequirementES1_EvT_S3_RSaIT0_E.exitthread-pre-split.i.i, label %.lr.ph.i.i.i.i.i, !llvm.loop !205

_ZSt8_DestroyIPN18cmCTestTestHandler30cmCTestTestResourceRequirementES1_EvT_S3_RSaIT0_E.exitthread-pre-split.i.i: ; preds = %.lr.ph.i.i.i.i.i
  %.pr.i.i = load ptr, ptr %6, align 8
  br label %_ZSt8_DestroyIPN18cmCTestTestHandler30cmCTestTestResourceRequirementES1_EvT_S3_RSaIT0_E.exit.i.i

_ZSt8_DestroyIPN18cmCTestTestHandler30cmCTestTestResourceRequirementES1_EvT_S3_RSaIT0_E.exit.i.i: ; preds = %_ZSt8_DestroyIPN18cmCTestTestHandler30cmCTestTestResourceRequirementES1_EvT_S3_RSaIT0_E.exitthread-pre-split.i.i, %5
  %11 = phi ptr [ %.pr.i.i, %_ZSt8_DestroyIPN18cmCTestTestHandler30cmCTestTestResourceRequirementES1_EvT_S3_RSaIT0_E.exitthread-pre-split.i.i ], [ %7, %5 ]
  %.not.i.i.i.i = icmp eq ptr %11, null
  br i1 %.not.i.i.i.i, label %_ZN32cmCTestResourceGroupsLexerHelperD2Ev.exit, label %12

12:                                               ; preds = %_ZSt8_DestroyIPN18cmCTestTestHandler30cmCTestTestResourceRequirementES1_EvT_S3_RSaIT0_E.exit.i.i
  call void @_ZdlPv(ptr noundef nonnull %11) #26
  br label %_ZN32cmCTestResourceGroupsLexerHelperD2Ev.exit

_ZN32cmCTestResourceGroupsLexerHelperD2Ev.exit:   ; preds = %_ZSt8_DestroyIPN18cmCTestTestHandler30cmCTestTestResourceRequirementES1_EvT_S3_RSaIT0_E.exit.i.i, %12
  %13 = getelementptr inbounds i8, ptr %3, i64 16
  call void @_ZNSt7__cxx1112basic_stringIcSt11char_traitsIcESaIcEED1Ev(ptr noundef nonnull align 8 dereferenceable(32) %13) #25
  ret i1 %4

14:                                               ; preds = %2
  %15 = landingpad { ptr, i32 }
          cleanup
  call void @_ZN32cmCTestResourceGroupsLexerHelperD2Ev(ptr noundef nonnull align 8 dereferenceable(80) %3) #25
  resume { ptr, i32 } %15
}